target datalayout = "e-m:e-p270:32:32-p271:32:32-p272:64:64-i64:64-i128:128-f80:128-n8:16:32:64-S128"
target triple = "x86_64-pc-linux-gnu"

%struct.sockaddr_un = type { i16, [108 x i8] }
%struct.RFile = type { %struct.RBasic, ptr }
%struct.RBasic = type { i64, i64 }
%struct.rb_io = type { i64, ptr, i32, i32, i32, i32, i64, ptr, %struct.rb_io_internal_buffer, %struct.rb_io_internal_buffer, i64, %struct.rb_io_encoding, ptr, %struct.rb_io_internal_buffer, ptr, i64, i32, i32, i64, i64, i64 }
%struct.rb_io_encoding = type { ptr, ptr, i32, i64 }
%struct.rb_io_internal_buffer = type <{ ptr, i32, i32, i32 }>
%union.__SOCKADDR_ARG = type { ptr }

@.str.14 = private unnamed_addr constant [15 x i8] c"getsockname(2)\00", align 1

; Function Attrs: inlinehint nounwind sspstrong willreturn memory(none) uwtable
define internal zeroext i1 @RB_NIL_P(i64 noundef %0) #10 {
  %2 = alloca i64, align 8
  store i64 %0, ptr %2, align 8, !tbaa !6
  %3 = load i64, ptr %2, align 8, !tbaa !6
  %4 = icmp eq i64 %3, 4
  ret i1 %4
}

; Function Attrs: nounwind sspstrong uwtable
define internal i64 @unix_path(i64 noundef %0) #0 {
  %2 = alloca i64, align 8
  %3 = alloca ptr, align 8
  %4 = alloca %struct.sockaddr_un, align 2
  %5 = alloca i32, align 4
  %6 = alloca i32, align 4
  %7 = alloca %union.__SOCKADDR_ARG, align 8
  store i64 %0, ptr %2, align 8, !tbaa !6
  call void @llvm.lifetime.start.p0(i64 8, ptr %3) #18
  %8 = load i64, ptr %2, align 8, !tbaa !6
  %9 = call i64 @rb_io_taint_check(i64 noundef %8)
  %10 = inttoptr i64 %9 to ptr
  %11 = getelementptr inbounds nuw %struct.RFile, ptr %10, i32 0, i32 1
  %12 = load ptr, ptr %11, align 8, !tbaa !18
  store ptr %12, ptr %3, align 8, !tbaa !22
  call void @rb_io_check_closed(ptr noundef %12)
  %13 = load ptr, ptr %3, align 8, !tbaa !22
  %14 = getelementptr inbounds nuw %struct.rb_io, ptr %13, i32 0, i32 6
  %15 = load i64, ptr %14, align 8, !tbaa !28
  %16 = call zeroext i1 @RB_NIL_P(i64 noundef %15) #23
  br i1 %16, label %17, label %42

17:                                               ; preds = %1
  call void @llvm.lifetime.start.p0(i64 110, ptr %4) #18
  call void @llvm.lifetime.start.p0(i64 4, ptr %5) #18
  store i32 110, ptr %5, align 4, !tbaa !10
  call void @llvm.lifetime.start.p0(i64 4, ptr %6) #18
  %18 = load i32, ptr %5, align 4, !tbaa !10
  store i32 %18, ptr %6, align 4, !tbaa !10
  %19 = load ptr, ptr %3, align 8, !tbaa !22
  %20 = getelementptr inbounds nuw %struct.rb_io, ptr %19, i32 0, i32 2
  %21 = load i32, ptr %20, align 8, !tbaa !42
  store ptr %4, ptr %7, align 8, !tbaa !23
  %22 = getelementptr inbounds nuw %union.__SOCKADDR_ARG, ptr %7, i32 0, i32 0
  %23 = load ptr, ptr %22, align 8
  %24 = call i32 @getsockname(i32 noundef %21, ptr %23, ptr noundef %5) #18
  %25 = icmp slt i32 %24, 0
  br i1 %25, label %26, label %30

26:                                               ; preds = %17
  %27 = load ptr, ptr %3, align 8, !tbaa !22
  %28 = getelementptr inbounds nuw %struct.rb_io, ptr %27, i32 0, i32 6
  %29 = load i64, ptr %28, align 8, !tbaa !28
  call void @rsock_sys_fail_path(ptr noundef @.str.14, i64 noundef %29) #20
  unreachable

30:                                               ; preds = %17
  %31 = load i32, ptr %6, align 4, !tbaa !10
  %32 = load i32, ptr %5, align 4, !tbaa !10
  %33 = icmp ult i32 %31, %32
  br i1 %33, label %34, label %36

34:                                               ; preds = %30
  %35 = load i32, ptr %6, align 4, !tbaa !10
  store i32 %35, ptr %5, align 4, !tbaa !10
  br label %36

36:                                               ; preds = %34, %30
  %37 = load i32, ptr %5, align 4, !tbaa !10
  %38 = call i64 @rsock_unixpath_str(ptr noundef %4, i32 noundef %37)
  %39 = call i64 @rb_obj_freeze(i64 noundef %38)
  %40 = load ptr, ptr %3, align 8, !tbaa !22
  %41 = getelementptr inbounds nuw %struct.rb_io, ptr %40, i32 0, i32 6
  store i64 %39, ptr %41, align 8, !tbaa !28
  call void @llvm.lifetime.end.p0(i64 4, ptr %6) #18
  call void @llvm.lifetime.end.p0(i64 4, ptr %5) #18
  call void @llvm.lifetime.end.p0(i64 110, ptr %4) #18
  br label %42

42:                                               ; preds = %36, %1
  %43 = load ptr, ptr %3, align 8, !tbaa !22
  %44 = getelementptr inbounds nuw %struct.rb_io, ptr %43, i32 0, i32 6
  %45 = load i64, ptr %44, align 8, !tbaa !28
  %46 = call i64 @rb_str_dup(i64 noundef %45)
  call void @llvm.lifetime.end.p0(i64 8, ptr %3) #18
  ret i64 %46
}