; Function Attrs: nounwind sspstrong uwtable
define internal i64 @unix_path(i64 noundef %0) #0 {
  %2 = alloca %struct.sockaddr_un, align 2
  %3 = alloca i32, align 4
  %4 = tail call i64 @rb_io_taint_check(i64 noundef %0) #7
  %5 = inttoptr i64 %4 to ptr
  %6 = getelementptr inbounds nuw i8, ptr %5, i64 16
  %7 = load ptr, ptr %6, align 8, !tbaa !25
  tail call void @rb_io_check_closed(ptr noundef %7) #7
  %8 = getelementptr inbounds nuw i8, ptr %7, i64 32
  %9 = load i64, ptr %8, align 8, !tbaa !36
  %10 = icmp eq i64 %9, 4
  br i1 %10, label %11, label %26

11:                                               ; preds = %1
  call void @llvm.lifetime.start.p0(i64 110, ptr nonnull %2) #7
  call void @llvm.lifetime.start.p0(i64 4, ptr nonnull %3) #7
  store i32 110, ptr %3, align 4, !tbaa !35
  %12 = getelementptr inbounds nuw i8, ptr %7, i64 16
  %13 = load i32, ptr %12, align 8, !tbaa !44
  %14 = call i32 @getsockname(i32 noundef %13, ptr nonnull %2, ptr noundef nonnull %3) #7
  %15 = icmp slt i32 %14, 0
  br i1 %15, label %16, label %18

16:                                               ; preds = %11
  %17 = load i64, ptr %8, align 8, !tbaa !36
  call void @rsock_sys_fail_path(ptr noundef nonnull @.str.14, i64 noundef %17) #8
  unreachable

18:                                               ; preds = %11
  %19 = load i32, ptr %3, align 4, !tbaa !35
  %20 = icmp ugt i32 %19, 110
  br i1 %20, label %21, label %22

21:                                               ; preds = %18
  store i32 110, ptr %3, align 4, !tbaa !35
  br label %22

22:                                               ; preds = %21, %18
  %23 = phi i32 [ 110, %21 ], [ %19, %18 ]
  %24 = call i64 @rsock_unixpath_str(ptr noundef nonnull %2, i32 noundef %23) #7
  %25 = call i64 @rb_obj_freeze(i64 noundef %24) #7
  store i64 %25, ptr %8, align 8, !tbaa !36
  call void @llvm.lifetime.end.p0(i64 4, ptr nonnull %3) #7
  call void @llvm.lifetime.end.p0(i64 110, ptr nonnull %2) #7
  br label %26

26:                                               ; preds = %22, %1
  %27 = phi i64 [ %25, %22 ], [ %9, %1 ]
  %28 = call i64 @rb_str_dup(i64 noundef %27) #7
  ret i64 %28
}